; ModuleID = '57/2506.c'
source_filename = "57/2506.c"
target datalayout = "e-m:e-p270:32:32-p271:32:32-p272:64:64-i64:64-f80:128-n8:16:32:64-S128"
target triple = "x86_64-pc-linux-gnu"

@.str = private unnamed_addr constant [3 x i8] c"%d\00", align 1

; Function Attrs: noinline nounwind uwtable
define dso_local void @houzhui() #0 {
  %1 = alloca i32, align 4
  %2 = alloca [32 x i8], align 16
  %3 = getelementptr inbounds [32 x i8], [32 x i8]* %2, i64 0, i64 0
  %4 = call i32 (i8*, ...) bitcast (i32 (...)* @gets to i32 (i8*, ...)*)(i8* %3)
  %5 = getelementptr inbounds [32 x i8], [32 x i8]* %2, i64 0, i64 0
  %6 = call i64 @strlen(i8* %5) #3
  %7 = trunc i64 %6 to i32
  store i32 %7, i32* %1, align 4
  %8 = load i32, i32* %1, align 4
  %9 = sub nsw i32 %8, 2
  %10 = sext i32 %9 to i64
  %11 = getelementptr inbounds [32 x i8], [32 x i8]* %2, i64 0, i64 %10
  %12 = load i8, i8* %11, align 1
  %13 = sext i8 %12 to i32
  %14 = icmp eq i32 %13, 101
  br i1 %14, label %15, label %23

15:                                               ; preds = %0
  %16 = load i32, i32* %1, align 4
  %17 = sub nsw i32 %16, 1
  %18 = sext i32 %17 to i64
  %19 = getelementptr inbounds [32 x i8], [32 x i8]* %2, i64 0, i64 %18
  %20 = load i8, i8* %19, align 1
  %21 = sext i8 %20 to i32
  %22 = icmp eq i32 %21, 114
  br i1 %22, label %39, label %23

23:                                               ; preds = %15, %0
  %24 = load i32, i32* %1, align 4
  %25 = sub nsw i32 %24, 2
  %26 = sext i32 %25 to i64
  %27 = getelementptr inbounds [32 x i8], [32 x i8]* %2, i64 0, i64 %26
  %28 = load i8, i8* %27, align 1
  %29 = sext i8 %28 to i32
  %30 = icmp eq i32 %29, 108
  br i1 %30, label %31, label %44

31:                                               ; preds = %23
  %32 = load i32, i32* %1, align 4
  %33 = sub nsw i32 %32, 1
  %34 = sext i32 %33 to i64
  %35 = getelementptr inbounds [32 x i8], [32 x i8]* %2, i64 0, i64 %34
  %36 = load i8, i8* %35, align 1
  %37 = sext i8 %36 to i32
  %38 = icmp eq i32 %37, 121
  br i1 %38, label %39, label %44

39:                                               ; preds = %31, %15
  %40 = load i32, i32* %1, align 4
  %41 = sub nsw i32 %40, 2
  %42 = sext i32 %41 to i64
  %43 = getelementptr inbounds [32 x i8], [32 x i8]* %2, i64 0, i64 %42
  store i8 0, i8* %43, align 1
  br label %44

44:                                               ; preds = %39, %31, %23
  %45 = load i32, i32* %1, align 4
  %46 = sub nsw i32 %45, 3
  %47 = sext i32 %46 to i64
  %48 = getelementptr inbounds [32 x i8], [32 x i8]* %2, i64 0, i64 %47
  %49 = load i8, i8* %48, align 1
  %50 = sext i8 %49 to i32
  %51 = icmp eq i32 %50, 105
  br i1 %51, label %52, label %73

52:                                               ; preds = %44
  %53 = load i32, i32* %1, align 4
  %54 = sub nsw i32 %53, 2
  %55 = sext i32 %54 to i64
  %56 = getelementptr inbounds [32 x i8], [32 x i8]* %2, i64 0, i64 %55
  %57 = load i8, i8* %56, align 1
  %58 = sext i8 %57 to i32
  %59 = icmp eq i32 %58, 110
  br i1 %59, label %60, label %73

60:                                               ; preds = %52
  %61 = load i32, i32* %1, align 4
  %62 = sub nsw i32 %61, 1
  %63 = sext i32 %62 to i64
  %64 = getelementptr inbounds [32 x i8], [32 x i8]* %2, i64 0, i64 %63
  %65 = load i8, i8* %64, align 1
  %66 = sext i8 %65 to i32
  %67 = icmp eq i32 %66, 103
  br i1 %67, label %68, label %73

68:                                               ; preds = %60
  %69 = load i32, i32* %1, align 4
  %70 = sub nsw i32 %69, 3
  %71 = sext i32 %70 to i64
  %72 = getelementptr inbounds [32 x i8], [32 x i8]* %2, i64 0, i64 %71
  store i8 0, i8* %72, align 1
  br label %73

73:                                               ; preds = %68, %60, %52, %44
  %74 = getelementptr inbounds [32 x i8], [32 x i8]* %2, i64 0, i64 0
  %75 = call i32 @puts(i8* %74)
  ret void
}

declare dso_local i32 @gets(...) #1

; Function Attrs: nounwind readonly
declare dso_local i64 @strlen(i8*) #2

declare dso_local i32 @puts(i8*) #1

; Function Attrs: noinline nounwind uwtable
define dso_local i32 @main() #0 {
  %1 = alloca i32, align 4
  %2 = alloca i32, align 4
  %3 = alloca i32, align 4
  store i32 0, i32* %1, align 4
  %4 = call i32 (i8*, ...) @__isoc99_scanf(i8* getelementptr inbounds ([3 x i8], [3 x i8]* @.str, i64 0, i64 0), i32* %2)
  %5 = call i32 @getchar()
  store i32 0, i32* %3, align 4
  br label %6

6:                                                ; preds = %11, %0
  %7 = load i32, i32* %3, align 4
  %8 = load i32, i32* %2, align 4
  %9 = icmp slt i32 %7, %8
  br i1 %9, label %10, label %14

10:                                               ; preds = %6
  call void @houzhui()
  br label %11

11:                                               ; preds = %10
  %12 = load i32, i32* %3, align 4
  %13 = add nsw i32 %12, 1
  store i32 %13, i32* %3, align 4
  br label %6

14:                                               ; preds = %6
  %15 = load i32, i32* %1, align 4
  ret i32 %15
}

declare dso_local i32 @__isoc99_scanf(i8*, ...) #1

declare dso_local i32 @getchar() #1


!llvm.module.flags = !{!0}
!llvm.ident = !{!1}

!0 = !{i32 1, !"wchar_size", i32 4}
!1 = !{!"clang version 10.0.0-4ubuntu1 "}
